Certificate:
    Data:
        Version: 3 (0x2)
        Serial Number: 2 (0x2)
    Signature Algorithm: sha256WithRSAEncryption
        Issuer: O=Test Org, CN=Test Org rauc CA Development
        Validity
            Not Before: Jan  1 00:00:00 1970 GMT
            Not After : Dec 31 23:59:59 9999 GMT
        Subject: O=Test Org, CN=Test Org Development-1
        Subject Public Key Info:
            Public Key Algorithm: rsaEncryption
                Public-Key: (2048 bit)
                Modulus:
                    00:c7:e8:42:3e:e2:47:ea:96:71:4b:1d:4a:93:b9:
                    4c:2c:2b:11:f4:a8:2a:d7:c5:87:44:8c:6d:03:23:
                    cc:55:94:04:15:97:60:b2:0a:45:16:64:7b:c9:20:
                    b6:63:56:66:e6:ab:30:88:2e:62:12:f3:65:77:33:
                    55:05:a8:e3:11:7a:46:4a:09:6a:a0:e4:bf:07:4e:
                    76:32:3e:be:85:cf:94:fd:bd:d6:54:2b:56:42:53:
                    10:69:02:57:5b:d3:fd:10:4c:8a:9b:9f:4e:c9:70:
                    2d:54:a7:c3:5c:22:50:01:bb:08:cb:0d:d4:57:1e:
                    dc:c5:6f:63:ac:96:71:ec:4b:c9:b4:3b:84:bd:7c:
                    4d:00:43:bd:34:0f:ac:d6:8f:1d:95:09:ad:bd:11:
                    e3:fa:98:b7:8c:4e:69:34:29:7c:b7:aa:f8:b4:3e:
                    24:f8:21:1e:2e:3b:66:79:3f:d2:7f:9f:6f:b6:c3:
                    42:86:78:58:93:f9:b7:fe:42:00:ce:81:0f:f6:b0:
                    3c:12:b7:b4:80:83:82:f2:34:02:89:55:df:7b:82:
                    94:3f:76:d3:45:8d:c3:83:39:a0:10:8f:99:dc:34:
                    37:5a:88:29:65:23:aa:46:d3:e8:55:52:78:c6:6c:
                    71:37:40:b4:92:de:d2:65:c6:3c:f1:d6:12:6b:a1:
                    69:bf
                Exponent: 65537 (0x10001)
        X509v3 extensions:
            X509v3 Subject Key Identifier: 
                2E:D7:27:83:4A:CD:A3:EB:5D:57:7C:6A:91:DC:62:6E:00:67:8D:16
            X509v3 Authority Key Identifier: 
                keyid:EE:8F:8F:DB:FF:30:09:A9:29:E1:01:CB:03:AA:E3:59:08:D1:7F:5D
                DirName:/O=Test Org/CN=Test Org rauc CA Development
                serial:01

            X509v3 Basic Constraints: 
                CA:FALSE
    Signature Algorithm: sha256WithRSAEncryption
         7e:bf:79:c5:b1:0d:53:42:55:eb:36:c4:b4:35:c9:3f:19:e7:
         a4:84:c7:b1:68:49:1f:22:5f:1a:9c:e3:3c:1f:37:27:42:46:
         47:16:b6:70:80:6d:91:13:2c:89:52:62:0c:a8:36:20:25:ae:
         3b:74:73:2c:3a:bf:e9:4a:53:11:d9:23:ac:34:d7:65:7a:9b:
         ff:23:26:41:a8:2b:5a:7d:a4:97:aa:e0:75:75:f6:c6:d7:b3:
         a3:47:a1:2e:6a:aa:c3:7b:7e:46:d2:43:8e:3c:25:37:d2:c1:
         a8:de:4c:00:a2:53:54:83:95:28:c1:05:37:a7:8c:a2:ea:f6:
         5c:d5:83:9f:22:18:fb:36:5a:89:48:ff:0f:80:02:f3:95:43:
         ff:4a:64:c8:6b:8d:ac:12:64:5e:3f:d7:14:b3:bd:97:2d:6f:
         65:32:42:f2:e0:6a:bc:cd:9a:93:75:a8:d3:55:dc:34:ff:9c:
         23:25:57:37:f1:c1:49:e7:94:ce:fe:9a:fd:29:bf:ef:11:c8:
         97:3a:0e:7d:a5:c7:86:30:5b:4c:5f:0f:92:33:54:ce:a9:fd:
         55:29:0a:fa:d9:30:3c:df:d0:77:96:28:0d:90:02:57:c7:87:
         e6:aa:23:e0:37:30:c0:ba:3d:f3:07:23:46:d1:1b:fa:a5:ad:
         86:7c:b5:a0
-----BEGIN CERTIFICATE-----
MIIDfzCCAmegAwIBAgIBAjANBgkqhkiG9w0BAQsFADA6MREwDwYDVQQKDAhUZXN0
IE9yZzElMCMGA1UEAwwcVGVzdCBPcmcgcmF1YyBDQSBEZXZlbG9wbWVudDAiGA8x
OTcwMDEwMTAwMDAwMFoYDzk5OTkxMjMxMjM1OTU5WjA0MREwDwYDVQQKDAhUZXN0
IE9yZzEfMB0GA1UEAwwWVGVzdCBPcmcgRGV2ZWxvcG1lbnQtMTCCASIwDQYJKoZI
hvcNAQEBBQADggEPADCCAQoCggEBAMfoQj7iR+qWcUsdSpO5TCwrEfSoKtfFh0SM
bQMjzFWUBBWXYLIKRRZke8kgtmNWZuarMIguYhLzZXczVQWo4xF6RkoJaqDkvwdO
djI+voXPlP291lQrVkJTEGkCV1vT/RBMipufTslwLVSnw1wiUAG7CMsN1Fce3MVv
Y6yWcexLybQ7hL18TQBDvTQPrNaPHZUJrb0R4/qYt4xOaTQpfLeq+LQ+JPghHi47
Znk/0n+fb7bDQoZ4WJP5t/5CAM6BD/awPBK3tICDgvI0AolV33uClD9200WNw4M5
oBCPmdw0N1qIKWUjqkbT6FVSeMZscTdAtJLe0mXGPPHWEmuhab8CAwEAAaOBkTCB
jjAdBgNVHQ4EFgQULtcng0rNo+tdV3xqkdxibgBnjRYwYgYDVR0jBFswWYAU7o+P
2/8wCakp4QHLA6rjWQjRf12hPqQ8MDoxETAPBgNVBAoMCFRlc3QgT3JnMSUwIwYD
VQQDDBxUZXN0IE9yZyByYXVjIENBIERldmVsb3BtZW50ggEBMAkGA1UdEwQCMAAw
DQYJKoZIhvcNAQELBQADggEBAH6/ecWxDVNCVes2xLQ1yT8Z56SEx7FoSR8iXxqc
4zwfNydCRkcWtnCAbZETLIlSYgyoNiAlrjt0cyw6v+lKUxHZI6w012V6m/8jJkGo
K1p9pJeq4HV19sbXs6NHoS5qqsN7fkbSQ448JTfSwajeTACiU1SDlSjBBTenjKLq
9lzVg58iGPs2WolI/w+AAvOVQ/9KZMhrjawSZF4/1xSzvZctb2UyQvLgarzNmpN1
qNNV3DT/nCMlVzfxwUnnlM7+mv0pv+8RyJc6Dn2lx4YwW0xfD5IzVM6p/VUpCvrZ
MDzf0HeWKA2QAlfHh+aqI+A3MMC6PfMHI0bRG/qlrYZ8taA=
-----END CERTIFICATE-----
