Certificate:
    Data:
        Version: 3 (0x2)
        Serial Number: 1 (0x1)
    Signature Algorithm: sha256WithRSAEncryption
        Issuer: O=Test Org, CN=Test Org rauc CA Development
        Validity
            Not Before: Jan  1 00:00:00 1970 GMT
            Not After : Dec 31 23:59:59 9999 GMT
        Subject: O=Test Org, CN=Test Org rauc CA Development
        Subject Public Key Info:
            Public Key Algorithm: rsaEncryption
                Public-Key: (2048 bit)
                Modulus:
                    00:bc:fb:d5:39:97:cb:d3:51:6d:92:b5:79:0b:11:
                    22:60:0a:c5:0e:41:ee:0b:ee:ce:32:c9:61:de:0f:
                    9f:d7:31:09:55:8b:39:84:e5:19:aa:e9:17:6e:74:
                    24:d5:d1:85:cb:d0:41:60:24:45:0f:b8:2e:03:d0:
                    b7:4d:75:e0:ca:e2:2a:ff:b5:d2:06:91:c4:5c:97:
                    e6:bf:f4:17:e7:9d:8c:9d:8f:c4:9a:12:dc:db:03:
                    4f:71:13:9d:07:fc:4e:14:ec:57:84:ef:0f:04:a9:
                    c5:dc:17:92:3e:3b:bc:ae:62:d5:71:42:ca:6f:23:
                    e4:f7:ed:cb:59:cb:90:ea:42:bb:22:c9:fc:23:97:
                    5d:98:49:01:9a:f8:51:07:63:13:83:15:93:b5:7a:
                    76:88:e7:d9:e8:27:7a:70:7a:6b:b9:71:cf:59:03:
                    cc:13:7d:7e:06:5e:57:fe:8b:e6:2e:d9:c2:6c:51:
                    8b:39:11:e2:44:d1:80:83:80:43:66:56:04:42:48:
                    1e:e9:b3:2e:6d:76:4d:ac:c3:bb:10:fd:16:16:73:
                    bd:c6:df:ee:a7:be:1b:54:f4:9f:f3:66:75:a4:05:
                    ad:c1:fa:40:a5:a1:72:13:36:e7:35:26:7b:9f:9c:
                    98:1a:e5:e9:bc:66:fa:69:44:29:be:f3:9a:3b:0c:
                    8f:2d
                Exponent: 65537 (0x10001)
        X509v3 extensions:
            X509v3 Subject Key Identifier: 
                EE:8F:8F:DB:FF:30:09:A9:29:E1:01:CB:03:AA:E3:59:08:D1:7F:5D
            X509v3 Authority Key Identifier: 
                keyid:EE:8F:8F:DB:FF:30:09:A9:29:E1:01:CB:03:AA:E3:59:08:D1:7F:5D
                DirName:/O=Test Org/CN=Test Org rauc CA Development
                serial:01

            X509v3 Basic Constraints: 
                CA:TRUE
    Signature Algorithm: sha256WithRSAEncryption
         8a:02:63:20:c4:33:88:cc:a8:c2:0c:34:84:fd:59:ce:4b:09:
         fb:97:33:f1:77:fc:57:96:a3:20:3f:9e:ed:68:a8:f1:4d:04:
         82:4b:57:95:d3:f6:ec:5f:d0:86:e4:d3:ec:5c:b5:58:09:d3:
         15:34:6f:d8:fe:95:f7:ec:af:bd:f9:da:0c:2b:33:46:24:a0:
         30:9b:5a:3f:7a:13:aa:ab:0c:54:59:36:e6:a1:82:42:5d:a6:
         ab:c9:5e:79:9b:e8:23:14:dc:35:17:82:2c:e2:11:53:25:ac:
         54:3b:fe:7d:4d:fa:27:47:53:6e:61:6c:a2:d0:0d:30:2b:f9:
         ca:0f:17:39:ad:21:21:1c:43:8c:fb:a4:56:bc:50:92:07:d2:
         2d:a7:f9:87:e3:a3:f3:1c:af:7d:22:80:09:41:a6:96:f4:68:
         16:e7:a7:a6:34:ce:ed:58:bb:dd:3e:00:05:a9:d1:70:ed:91:
         46:bd:db:33:d3:ee:eb:69:84:5d:b7:e3:8c:6f:ee:e6:d9:f5:
         ae:af:75:34:f0:f7:33:0d:cd:14:b5:92:d9:f8:81:2a:b7:2a:
         5f:80:ce:72:f6:e0:a8:df:41:ec:36:32:d2:a2:48:77:e1:a1:
         d3:31:73:f3:63:5c:9d:ba:51:3d:a1:3f:04:72:05:20:89:c8:
         7b:88:21:ab
-----BEGIN CERTIFICATE-----
MIIDiDCCAnCgAwIBAgIBATANBgkqhkiG9w0BAQsFADA6MREwDwYDVQQKDAhUZXN0
IE9yZzElMCMGA1UEAwwcVGVzdCBPcmcgcmF1YyBDQSBEZXZlbG9wbWVudDAiGA8x
OTcwMDEwMTAwMDAwMFoYDzk5OTkxMjMxMjM1OTU5WjA6MREwDwYDVQQKDAhUZXN0
IE9yZzElMCMGA1UEAwwcVGVzdCBPcmcgcmF1YyBDQSBEZXZlbG9wbWVudDCCASIw
DQYJKoZIhvcNAQEBBQADggEPADCCAQoCggEBALz71TmXy9NRbZK1eQsRImAKxQ5B
7gvuzjLJYd4Pn9cxCVWLOYTlGarpF250JNXRhcvQQWAkRQ+4LgPQt0114MriKv+1
0gaRxFyX5r/0F+edjJ2PxJoS3NsDT3ETnQf8ThTsV4TvDwSpxdwXkj47vK5i1XFC
ym8j5Pfty1nLkOpCuyLJ/COXXZhJAZr4UQdjE4MVk7V6dojn2egnenB6a7lxz1kD
zBN9fgZeV/6L5i7ZwmxRizkR4kTRgIOAQ2ZWBEJIHumzLm12TazDuxD9FhZzvcbf
7qe+G1T0n/NmdaQFrcH6QKWhchM25zUme5+cmBrl6bxm+mlEKb7zmjsMjy0CAwEA
AaOBlDCBkTAdBgNVHQ4EFgQU7o+P2/8wCakp4QHLA6rjWQjRf10wYgYDVR0jBFsw
WYAU7o+P2/8wCakp4QHLA6rjWQjRf12hPqQ8MDoxETAPBgNVBAoMCFRlc3QgT3Jn
MSUwIwYDVQQDDBxUZXN0IE9yZyByYXVjIENBIERldmVsb3BtZW50ggEBMAwGA1Ud
EwQFMAMBAf8wDQYJKoZIhvcNAQELBQADggEBAIoCYyDEM4jMqMIMNIT9Wc5LCfuX
M/F3/FeWoyA/nu1oqPFNBIJLV5XT9uxf0Ibk0+xctVgJ0xU0b9j+lffsr7352gwr
M0YkoDCbWj96E6qrDFRZNuahgkJdpqvJXnmb6CMU3DUXgiziEVMlrFQ7/n1N+idH
U25hbKLQDTAr+coPFzmtISEcQ4z7pFa8UJIH0i2n+Yfjo/Mcr30igAlBppb0aBbn
p6Y0zu1Yu90+AAWp0XDtkUa92zPT7utphF2344xv7ubZ9a6vdTTw9zMNzRS1ktn4
gSq3Kl+AznL24KjfQew2MtKiSHfhodMxc/NjXJ26UT2hPwRyBSCJyHuIIas=
-----END CERTIFICATE-----
